target datalayout = "e-m:e-p270:32:32-p271:32:32-p272:64:64-i64:64-i128:128-f80:128-n8:16:32:64-S128"
target triple = "x86_64-unknown-linux-gnu"

%"struct.node::AssertionInfo" = type { ptr, ptr, ptr }
%"class.node::http2::Http2Stream" = type { %"class.node::AsyncWrap", %"class.node::StreamBase", %"struct.node::http2::Http2Stream::Statistics", %"class.node::BaseObjectPtrImpl.2", i32, i32, i32, i32, i32, i32, i32, %"class.std::vector", i64, %"class.std::queue", i64, %"class.node::http2::Http2StreamListener" }
%"class.node::AsyncWrap" = type { %"class.node::BaseObject", i32, i8, double, double }
%"class.node::BaseObject" = type { %"class.node::MemoryRetainer", %"class.v8::Global", ptr, ptr }
%"class.node::MemoryRetainer" = type { ptr }
%"class.v8::Global" = type { %"class.v8::PersistentBase" }
%"class.v8::PersistentBase" = type { %"class.v8::IndirectHandleBase" }
%"class.v8::IndirectHandleBase" = type { ptr }
%"class.node::StreamBase" = type { %"class.node::StreamResource", ptr, %"class.node::EmitToJSStreamListener" }
%"class.node::StreamResource" = type { ptr, ptr, i64, i64 }
%"class.node::EmitToJSStreamListener" = type { %"class.node::ReportWritesToJSStreamListener" }
%"class.node::ReportWritesToJSStreamListener" = type { %"class.node::StreamListener" }
%"class.node::StreamListener" = type { ptr, ptr, ptr }
%"struct.node::http2::Http2Stream::Statistics" = type { i64, i64, i64, i64, i64, i64, i64, i64 }
%"class.node::BaseObjectPtrImpl.2" = type { %union.anon.3 }
%union.anon.3 = type { ptr }
%"class.std::vector" = type { %"struct.std::_Vector_base" }
%"struct.std::_Vector_base" = type { %"struct.std::_Vector_base<node::NgHeader<node::http2::Http2HeaderTraits>, std::allocator<node::NgHeader<node::http2::Http2HeaderTraits>>>::_Vector_impl" }
%"struct.std::_Vector_base<node::NgHeader<node::http2::Http2HeaderTraits>, std::allocator<node::NgHeader<node::http2::Http2HeaderTraits>>>::_Vector_impl" = type { %"struct.std::_Vector_base<node::NgHeader<node::http2::Http2HeaderTraits>, std::allocator<node::NgHeader<node::http2::Http2HeaderTraits>>>::_Vector_impl_data" }
%"struct.std::_Vector_base<node::NgHeader<node::http2::Http2HeaderTraits>, std::allocator<node::NgHeader<node::http2::Http2HeaderTraits>>>::_Vector_impl_data" = type { ptr, ptr, ptr }
%"class.std::queue" = type { %"class.std::deque" }
%"class.std::deque" = type { %"class.std::_Deque_base" }
%"class.std::_Deque_base" = type { %"struct.std::_Deque_base<node::http2::NgHttp2StreamWrite, std::allocator<node::http2::NgHttp2StreamWrite>>::_Deque_impl" }
%"struct.std::_Deque_base<node::http2::NgHttp2StreamWrite, std::allocator<node::http2::NgHttp2StreamWrite>>::_Deque_impl" = type { %"struct.std::_Deque_base<node::http2::NgHttp2StreamWrite, std::allocator<node::http2::NgHttp2StreamWrite>>::_Deque_impl_data" }
%"struct.std::_Deque_base<node::http2::NgHttp2StreamWrite, std::allocator<node::http2::NgHttp2StreamWrite>>::_Deque_impl_data" = type { ptr, i64, %"struct.std::_Deque_iterator", %"struct.std::_Deque_iterator" }
%"struct.std::_Deque_iterator" = type { ptr, ptr, ptr, ptr }
%"class.node::http2::Http2StreamListener" = type { %"class.node::StreamListener" }
%"class.node::http2::Http2Scope" = type { %"class.node::BaseObjectPtrImpl" }
%"class.node::BaseObjectPtrImpl" = type { %union.anon }
%union.anon = type { ptr }
%"class.node::http2::Http2Session" = type { %"class.node::AsyncWrap", %"class.node::StreamListener", %"class.node::mem::NgLibMemoryManager", %"struct.node::http2::Http2Session::Statistics", %"class.std::unique_ptr.7", %"class.node::AliasedStruct", i32, i32, i64, i64, i64, %"class.std::unordered_map", i32, i32, i32, %struct.uv_buf_t, %"class.v8::Global.15", %"class.std::unique_ptr.22", i64, ptr, i64, %"class.std::queue.30", i64, %"class.std::queue.37", %"class.std::vector.44", %"class.std::vector.46", i64, %"class.std::vector.51", i32, i32, %"class.node::BaseObjectPtrImpl.56" }
%"class.node::mem::NgLibMemoryManager" = type { %"struct.node::mem::NgLibMemoryManagerBase" }
%"struct.node::mem::NgLibMemoryManagerBase" = type { ptr }
%"struct.node::http2::Http2Session::Statistics" = type { i64, i64, i64, i64, i64, i32, i32, i32, i64, double, i32 }
%"class.std::unique_ptr.7" = type { %"struct.std::__uniq_ptr_data.8" }
%"struct.std::__uniq_ptr_data.8" = type { %"class.std::__uniq_ptr_impl.9" }
%"class.std::__uniq_ptr_impl.9" = type { %"class.std::tuple.10" }
%"class.std::tuple.10" = type { %"struct.std::_Tuple_impl.11" }
%"struct.std::_Tuple_impl.11" = type { %"struct.std::_Head_base.14" }
%"struct.std::_Head_base.14" = type { ptr }
%"class.node::AliasedStruct" = type { ptr, %"class.std::shared_ptr", ptr, %"class.v8::Global.15" }
%"class.std::shared_ptr" = type { %"class.std::__shared_ptr" }
%"class.std::__shared_ptr" = type { ptr, %"class.std::__shared_count" }
%"class.std::__shared_count" = type { ptr }
%"class.std::unordered_map" = type { %"class.std::_Hashtable" }
%"class.std::_Hashtable" = type { ptr, i64, %"struct.std::__detail::_Hash_node_base", i64, %"struct.std::__detail::_Prime_rehash_policy", ptr }
%"struct.std::__detail::_Hash_node_base" = type { ptr }
%"struct.std::__detail::_Prime_rehash_policy" = type { float, i64 }
%struct.uv_buf_t = type { ptr, i64 }
%"class.v8::Global.15" = type { %"class.v8::PersistentBase.16" }
%"class.v8::PersistentBase.16" = type { %"class.v8::IndirectHandleBase" }
%"class.std::unique_ptr.22" = type { %"struct.std::__uniq_ptr_data.23" }
%"struct.std::__uniq_ptr_data.23" = type { %"class.std::__uniq_ptr_impl.24" }
%"class.std::__uniq_ptr_impl.24" = type { %"class.std::tuple.25" }
%"class.std::tuple.25" = type { %"struct.std::_Tuple_impl.26" }
%"struct.std::_Tuple_impl.26" = type { %"struct.std::_Head_base.29" }
%"struct.std::_Head_base.29" = type { ptr }
%"class.std::queue.30" = type { %"class.std::deque.31" }
%"class.std::deque.31" = type { %"class.std::_Deque_base.32" }
%"class.std::_Deque_base.32" = type { %"struct.std::_Deque_base<node::BaseObjectPtrImpl<node::http2::Http2Ping, false>, std::allocator<node::BaseObjectPtrImpl<node::http2::Http2Ping, false>>>::_Deque_impl" }
%"struct.std::_Deque_base<node::BaseObjectPtrImpl<node::http2::Http2Ping, false>, std::allocator<node::BaseObjectPtrImpl<node::http2::Http2Ping, false>>>::_Deque_impl" = type { %"struct.std::_Deque_base<node::BaseObjectPtrImpl<node::http2::Http2Ping, false>, std::allocator<node::BaseObjectPtrImpl<node::http2::Http2Ping, false>>>::_Deque_impl_data" }
%"struct.std::_Deque_base<node::BaseObjectPtrImpl<node::http2::Http2Ping, false>, std::allocator<node::BaseObjectPtrImpl<node::http2::Http2Ping, false>>>::_Deque_impl_data" = type { ptr, i64, %"struct.std::_Deque_iterator.36", %"struct.std::_Deque_iterator.36" }
%"struct.std::_Deque_iterator.36" = type { ptr, ptr, ptr, ptr }
%"class.std::queue.37" = type { %"class.std::deque.38" }
%"class.std::deque.38" = type { %"class.std::_Deque_base.39" }
%"class.std::_Deque_base.39" = type { %"struct.std::_Deque_base<node::BaseObjectPtrImpl<node::http2::Http2Settings, false>, std::allocator<node::BaseObjectPtrImpl<node::http2::Http2Settings, false>>>::_Deque_impl" }
%"struct.std::_Deque_base<node::BaseObjectPtrImpl<node::http2::Http2Settings, false>, std::allocator<node::BaseObjectPtrImpl<node::http2::Http2Settings, false>>>::_Deque_impl" = type { %"struct.std::_Deque_base<node::BaseObjectPtrImpl<node::http2::Http2Settings, false>, std::allocator<node::BaseObjectPtrImpl<node::http2::Http2Settings, false>>>::_Deque_impl_data" }
%"struct.std::_Deque_base<node::BaseObjectPtrImpl<node::http2::Http2Settings, false>, std::allocator<node::BaseObjectPtrImpl<node::http2::Http2Settings, false>>>::_Deque_impl_data" = type { ptr, i64, %"struct.std::_Deque_iterator.43", %"struct.std::_Deque_iterator.43" }
%"struct.std::_Deque_iterator.43" = type { ptr, ptr, ptr, ptr }
%"class.std::vector.44" = type { %"struct.std::_Vector_base.45" }
%"struct.std::_Vector_base.45" = type { %"struct.std::_Vector_base<node::http2::NgHttp2StreamWrite, std::allocator<node::http2::NgHttp2StreamWrite>>::_Vector_impl" }
%"struct.std::_Vector_base<node::http2::NgHttp2StreamWrite, std::allocator<node::http2::NgHttp2StreamWrite>>::_Vector_impl" = type { %"struct.std::_Vector_base<node::http2::NgHttp2StreamWrite, std::allocator<node::http2::NgHttp2StreamWrite>>::_Vector_impl_data" }
%"struct.std::_Vector_base<node::http2::NgHttp2StreamWrite, std::allocator<node::http2::NgHttp2StreamWrite>>::_Vector_impl_data" = type { ptr, ptr, ptr }
%"class.std::vector.46" = type { %"struct.std::_Vector_base.47" }
%"struct.std::_Vector_base.47" = type { %"struct.std::_Vector_base<unsigned char, std::allocator<unsigned char>>::_Vector_impl" }
%"struct.std::_Vector_base<unsigned char, std::allocator<unsigned char>>::_Vector_impl" = type { %"struct.std::_Vector_base<unsigned char, std::allocator<unsigned char>>::_Vector_impl_data" }
%"struct.std::_Vector_base<unsigned char, std::allocator<unsigned char>>::_Vector_impl_data" = type { ptr, ptr, ptr }
%"class.std::vector.51" = type { %"struct.std::_Vector_base.52" }
%"struct.std::_Vector_base.52" = type { %"struct.std::_Vector_base<int, std::allocator<int>>::_Vector_impl" }
%"struct.std::_Vector_base<int, std::allocator<int>>::_Vector_impl" = type { %"struct.std::_Vector_base<int, std::allocator<int>>::_Vector_impl_data" }
%"struct.std::_Vector_base<int, std::allocator<int>>::_Vector_impl_data" = type { ptr, ptr, ptr }
%"class.node::BaseObjectPtrImpl.56" = type { %union.anon.57 }
%union.anon.57 = type { ptr }
%"struct.node::BaseObject::PointerData" = type { i32, i32, i8, i8, ptr }

@_ZZN4node5http211Http2Stream14FlushRstStreamEvE4args = internal constant %"struct.node::AssertionInfo" { ptr @.str.200, ptr @.str.201, ptr @.str.202 }, align 8
@_ZN4node5http210Http2ScopeC1EPNS0_11Http2StreamE = dso_local unnamed_addr alias void (ptr, ptr), ptr @_ZN4node5http210Http2ScopeC2EPNS0_11Http2StreamE
@_ZN4node5http210Http2ScopeD1Ev = dso_local unnamed_addr alias void (ptr), ptr @_ZN4node5http210Http2ScopeD2Ev

; Function Attrs: mustprogress nounwind uwtable
define linkonce_odr dso_local noundef nonnull align 8 dereferenceable(8) ptr @_ZNSt10_Head_baseILm0EP15nghttp2_sessionLb0EE7_M_headERKS2_(ptr noundef nonnull align 8 dereferenceable(8) %__b) #4 comdat align 2 {
entry:
  %__b.addr = alloca ptr, align 8
  store ptr %__b, ptr %__b.addr, align 8
  %0 = load ptr, ptr %__b.addr, align 8
  %_M_head_impl = getelementptr inbounds %"struct.std::_Head_base.14", ptr %0, i32 0, i32 0
  ret ptr %_M_head_impl
}

; Function Attrs: mustprogress nounwind uwtable
define linkonce_odr dso_local noundef nonnull align 8 dereferenceable(8) ptr @_ZNSt11_Tuple_implILm0EJP15nghttp2_sessionN4node5http214Nghttp2DeleterIS0_XadL_Z19nghttp2_session_delEEEEEE7_M_headERKS6_(ptr noundef nonnull align 8 dereferenceable(8) %__t) #4 comdat align 2 {
entry:
  %__t.addr = alloca ptr, align 8
  store ptr %__t, ptr %__t.addr, align 8
  %0 = load ptr, ptr %__t.addr, align 8
  %call = call noundef nonnull align 8 dereferenceable(8) ptr @_ZNSt10_Head_baseILm0EP15nghttp2_sessionLb0EE7_M_headERKS2_(ptr noundef nonnull align 8 dereferenceable(8) %0) #3
  ret ptr %call
}

; Function Attrs: mustprogress nounwind uwtable
define linkonce_odr dso_local noundef nonnull align 8 dereferenceable(8) ptr @_ZSt12__get_helperILm0EP15nghttp2_sessionJN4node5http214Nghttp2DeleterIS0_XadL_Z19nghttp2_session_delEEEEEERKT0_RKSt11_Tuple_implIXT_EJS6_DpT1_EE(ptr noundef nonnull align 8 dereferenceable(8) %__t) #4 comdat {
entry:
  %__t.addr = alloca ptr, align 8
  store ptr %__t, ptr %__t.addr, align 8
  %0 = load ptr, ptr %__t.addr, align 8
  %call = call noundef nonnull align 8 dereferenceable(8) ptr @_ZNSt11_Tuple_implILm0EJP15nghttp2_sessionN4node5http214Nghttp2DeleterIS0_XadL_Z19nghttp2_session_delEEEEEE7_M_headERKS6_(ptr noundef nonnull align 8 dereferenceable(8) %0) #3
  ret ptr %call
}

; Function Attrs: mustprogress nounwind uwtable
define linkonce_odr dso_local noundef nonnull align 8 dereferenceable(8) ptr @_ZSt3getILm0EJP15nghttp2_sessionN4node5http214Nghttp2DeleterIS0_XadL_Z19nghttp2_session_delEEEEEERKNSt13tuple_elementIXT_ESt5tupleIJDpT0_EEE4typeERKSA_(ptr noundef nonnull align 8 dereferenceable(8) %__t) #4 comdat {
entry:
  %__t.addr = alloca ptr, align 8
  store ptr %__t, ptr %__t.addr, align 8
  %0 = load ptr, ptr %__t.addr, align 8
  %call = call noundef nonnull align 8 dereferenceable(8) ptr @_ZSt12__get_helperILm0EP15nghttp2_sessionJN4node5http214Nghttp2DeleterIS0_XadL_Z19nghttp2_session_delEEEEEERKT0_RKSt11_Tuple_implIXT_EJS6_DpT1_EE(ptr noundef nonnull align 8 dereferenceable(8) %0) #3
  ret ptr %call
}

; Function Attrs: mustprogress nounwind uwtable
define linkonce_odr dso_local noundef ptr @_ZNK4node17BaseObjectPtrImplINS_5http212Http2SessionELb1EE12pointer_dataEv(ptr noundef nonnull align 8 dereferenceable(8) %this) #4 comdat align 2 {
entry:
  %this.addr = alloca ptr, align 8
  store ptr %this, ptr %this.addr, align 8
  %this1 = load ptr, ptr %this.addr, align 8
  %data_ = getelementptr inbounds %"class.node::BaseObjectPtrImpl.2", ptr %this1, i32 0, i32 0
  %0 = load ptr, ptr %data_, align 8
  ret ptr %0
}

; Function Attrs: mustprogress nounwind uwtable
define linkonce_odr dso_local noundef ptr @_ZNKSt15__uniq_ptr_implI15nghttp2_sessionN4node5http214Nghttp2DeleterIS0_XadL_Z19nghttp2_session_delEEEEE6_M_ptrEv(ptr noundef nonnull align 8 dereferenceable(8) %this) #4 comdat align 2 {
entry:
  %this.addr = alloca ptr, align 8
  store ptr %this, ptr %this.addr, align 8
  %this1 = load ptr, ptr %this.addr, align 8
  %_M_t = getelementptr inbounds %"class.std::__uniq_ptr_impl.9", ptr %this1, i32 0, i32 0
  %call = call noundef nonnull align 8 dereferenceable(8) ptr @_ZSt3getILm0EJP15nghttp2_sessionN4node5http214Nghttp2DeleterIS0_XadL_Z19nghttp2_session_delEEEEEERKNSt13tuple_elementIXT_ESt5tupleIJDpT0_EEE4typeERKSA_(ptr noundef nonnull align 8 dereferenceable(8) %_M_t) #3
  %0 = load ptr, ptr %call, align 8
  ret ptr %0
}

; Function Attrs: mustprogress nounwind uwtable
define linkonce_odr dso_local noundef ptr @_ZNK4node17BaseObjectPtrImplINS_5http212Http2SessionELb1EE15get_base_objectEv(ptr noundef nonnull align 8 dereferenceable(8) %this) #4 comdat align 2 {
entry:
  %retval = alloca ptr, align 8
  %this.addr = alloca ptr, align 8
  store ptr %this, ptr %this.addr, align 8
  %this1 = load ptr, ptr %this.addr, align 8
  %call = call noundef ptr @_ZNK4node17BaseObjectPtrImplINS_5http212Http2SessionELb1EE12pointer_dataEv(ptr noundef nonnull align 8 dereferenceable(8) %this1)
  %cmp = icmp eq ptr %call, null
  br i1 %cmp, label %if.then, label %if.end

if.then:                                          ; preds = %entry
  store ptr null, ptr %retval, align 8
  br label %return

if.end:                                           ; preds = %entry
  %call2 = call noundef ptr @_ZNK4node17BaseObjectPtrImplINS_5http212Http2SessionELb1EE12pointer_dataEv(ptr noundef nonnull align 8 dereferenceable(8) %this1)
  %self = getelementptr inbounds %"struct.node::BaseObject::PointerData", ptr %call2, i32 0, i32 4
  %0 = load ptr, ptr %self, align 8
  store ptr %0, ptr %retval, align 8
  br label %return

return:                                           ; preds = %if.end, %if.then
  %1 = load ptr, ptr %retval, align 8
  ret ptr %1
}

; Function Attrs: mustprogress nounwind uwtable
define linkonce_odr dso_local noundef ptr @_ZNKSt10unique_ptrI15nghttp2_sessionN4node5http214Nghttp2DeleterIS0_XadL_Z19nghttp2_session_delEEEEE3getEv(ptr noundef nonnull align 8 dereferenceable(8) %this) #4 comdat align 2 {
entry:
  %this.addr = alloca ptr, align 8
  store ptr %this, ptr %this.addr, align 8
  %this1 = load ptr, ptr %this.addr, align 8
  %_M_t = getelementptr inbounds %"class.std::unique_ptr.7", ptr %this1, i32 0, i32 0
  %call = call noundef ptr @_ZNKSt15__uniq_ptr_implI15nghttp2_sessionN4node5http214Nghttp2DeleterIS0_XadL_Z19nghttp2_session_delEEEEE6_M_ptrEv(ptr noundef nonnull align 8 dereferenceable(8) %_M_t) #3
  ret ptr %call
}

; Function Attrs: mustprogress nounwind uwtable
define linkonce_odr dso_local noundef ptr @_ZNK4node17BaseObjectPtrImplINS_5http212Http2SessionELb1EE3getEv(ptr noundef nonnull align 8 dereferenceable(8) %this) #4 comdat align 2 {
entry:
  %this.addr = alloca ptr, align 8
  store ptr %this, ptr %this.addr, align 8
  %this1 = load ptr, ptr %this.addr, align 8
  %call = call noundef ptr @_ZNK4node17BaseObjectPtrImplINS_5http212Http2SessionELb1EE15get_base_objectEv(ptr noundef nonnull align 8 dereferenceable(8) %this1)
  ret ptr %call
}

; Function Attrs: mustprogress nounwind uwtable
define linkonce_odr dso_local noundef ptr @_ZNK4node5http212Http2Session7sessionEv(ptr noundef nonnull align 8 dereferenceable(640) %this) #4 comdat align 2 {
entry:
  %this.addr = alloca ptr, align 8
  store ptr %this, ptr %this.addr, align 8
  %this1 = load ptr, ptr %this.addr, align 8
  %session_ = getelementptr inbounds %"class.node::http2::Http2Session", ptr %this1, i32 0, i32 4
  %call = call noundef ptr @_ZNKSt10unique_ptrI15nghttp2_sessionN4node5http214Nghttp2DeleterIS0_XadL_Z19nghttp2_session_delEEEEE3getEv(ptr noundef nonnull align 8 dereferenceable(8) %session_) #3
  ret ptr %call
}

; Function Attrs: mustprogress nounwind uwtable
define linkonce_odr dso_local noundef ptr @_ZNK4node17BaseObjectPtrImplINS_5http212Http2SessionELb1EEptEv(ptr noundef nonnull align 8 dereferenceable(8) %this) #4 comdat align 2 {
entry:
  %this.addr = alloca ptr, align 8
  store ptr %this, ptr %this.addr, align 8
  %this1 = load ptr, ptr %this.addr, align 8
  %call = call noundef ptr @_ZNK4node17BaseObjectPtrImplINS_5http212Http2SessionELb1EE3getEv(ptr noundef nonnull align 8 dereferenceable(8) %this1)
  ret ptr %call
}

; Function Attrs: mustprogress nounwind uwtable
define linkonce_odr dso_local noundef zeroext i1 @_ZNK4node5http211Http2Stream12is_destroyedEv(ptr noundef nonnull align 8 dereferenceable(368) %this) #4 comdat align 2 {
entry:
  %this.addr = alloca ptr, align 8
  store ptr %this, ptr %this.addr, align 8
  %this1 = load ptr, ptr %this.addr, align 8
  %flags_ = getelementptr inbounds %"class.node::http2::Http2Stream", ptr %this1, i32 0, i32 6
  %0 = load i32, ptr %flags_, align 8
  %and = and i32 %0, 16
  %tobool = icmp ne i32 %and, 0
  ret i1 %tobool
}

; Function Attrs: mustprogress nounwind uwtable
define dso_local void @_ZN4node5http211Http2Stream14FlushRstStreamEv(ptr noundef nonnull align 8 dereferenceable(368) %this) #4 align 2 {
entry:
  %this.addr = alloca ptr, align 8
  %h2scope = alloca %"class.node::http2::Http2Scope", align 8
  store ptr %this, ptr %this.addr, align 8
  %this1 = load ptr, ptr %this.addr, align 8
  %call = call noundef zeroext i1 @_ZNK4node5http211Http2Stream12is_destroyedEv(ptr noundef nonnull align 8 dereferenceable(368) %this1)
  br i1 %call, label %if.then, label %if.end

if.then:                                          ; preds = %entry
  br label %return

if.end:                                           ; preds = %entry
  call void @_ZN4node5http210Http2ScopeC1EPNS0_11Http2StreamE(ptr noundef nonnull align 8 dereferenceable(8) %h2scope, ptr noundef %this1)
  br label %do.body

do.body:                                          ; preds = %if.end
  %session_ = getelementptr inbounds %"class.node::http2::Http2Stream", ptr %this1, i32 0, i32 3
  %call2 = call noundef ptr @_ZNK4node17BaseObjectPtrImplINS_5http212Http2SessionELb1EEptEv(ptr noundef nonnull align 8 dereferenceable(8) %session_)
  %call3 = call noundef ptr @_ZNK4node5http212Http2Session7sessionEv(ptr noundef nonnull align 8 dereferenceable(640) %call2)
  %id_ = getelementptr inbounds %"class.node::http2::Http2Stream", ptr %this1, i32 0, i32 4
  %0 = load i32, ptr %id_, align 8
  %code_ = getelementptr inbounds %"class.node::http2::Http2Stream", ptr %this1, i32 0, i32 5
  %1 = load i32, ptr %code_, align 4
  %call4 = call i32 @nghttp2_submit_rst_stream(ptr noundef %call3, i8 noundef zeroext 0, i32 noundef %0, i32 noundef %1)
  %cmp = icmp eq i32 %call4, 0
  %lnot = xor i1 %cmp, true
  %lnot5 = xor i1 %lnot, true
  %lnot6 = xor i1 %lnot5, true
  br i1 %lnot6, label %if.then7, label %if.end9

if.then7:                                         ; preds = %do.body
  br label %do.body8

do.body8:                                         ; preds = %if.then7
  call void @_ZN4node6AssertERKNS_13AssertionInfoE(ptr noundef nonnull align 8 dereferenceable(24) @_ZZN4node5http211Http2Stream14FlushRstStreamEvE4args)
  call void @abort() #15
  unreachable

do.cond:                                          ; No predecessors!
  br label %do.end

do.end:                                           ; preds = %do.cond
  br label %if.end9

if.end9:                                          ; preds = %do.end, %do.body
  br label %do.cond10

do.cond10:                                        ; preds = %if.end9
  br label %do.end11

do.end11:                                         ; preds = %do.cond10
  call void @_ZN4node5http210Http2ScopeD1Ev(ptr noundef nonnull align 8 dereferenceable(8) %h2scope) #3
  br label %return

return:                                           ; preds = %do.end11, %if.then
  ret void
}