; Function Attrs: mustprogress nounwind uwtable
define dso_local void @_ZN4node5http211Http2Stream14FlushRstStreamEv(ptr nocapture noundef nonnull readonly align 8 dereferenceable(368) %this) local_unnamed_addr #4 align 2 {
entry:
  %flags_.i = getelementptr inbounds i8, ptr %this, i64 200
  %0 = load i32, ptr %flags_.i, align 8
  %and.i = and i32 %0, 16
  %tobool.i.not = icmp eq i32 %and.i, 0
  br i1 %tobool.i.not, label %if.end, label %return

if.end:                                           ; preds = %entry
  %session_.i.i = getelementptr inbounds i8, ptr %this, i64 184
  %1 = load ptr, ptr %session_.i.i, align 8, !nonnull !13, !noundef !13
  %self.i.i.i.i = getelementptr inbounds i8, ptr %1, i64 16
  %2 = load ptr, ptr %self.i.i.i.i, align 8
  %cmp.i.i.i = icmp eq ptr %2, null
  br i1 %cmp.i.i.i, label %_ZN4node5http210Http2ScopeC2EPNS0_11Http2StreamE.exit, label %_ZNK4node17BaseObjectPtrImplINS_5http212Http2SessionELb0EE12pointer_dataEv.exit.i.i.i

_ZNK4node17BaseObjectPtrImplINS_5http212Http2SessionELb0EE12pointer_dataEv.exit.i.i.i: ; preds = %if.end
  %call3.i.i.i.i = tail call noundef ptr @_ZN4node10BaseObject12pointer_dataEv(ptr noundef nonnull align 8 dereferenceable(32) %2) #29
  %cmp2.not.i.i.i = icmp eq ptr %call3.i.i.i.i, null
  br i1 %cmp2.not.i.i.i, label %do.body6.i.i.i, label %if.end.i.i

do.body6.i.i.i:                                   ; preds = %_ZNK4node17BaseObjectPtrImplINS_5http212Http2SessionELb0EE12pointer_dataEv.exit.i.i.i
  tail call void @_ZN4node6AssertERKNS_13AssertionInfoE(ptr noundef nonnull align 8 dereferenceable(24) @_ZZN4node17BaseObjectPtrImplINS_5http212Http2SessionELb0EEC1EPS2_E4args_0) #29
  tail call void @abort() #30
  unreachable

if.end.i.i:                                       ; preds = %_ZNK4node17BaseObjectPtrImplINS_5http212Http2SessionELb0EE12pointer_dataEv.exit.i.i.i
  tail call void @_ZN4node10BaseObject17increase_refcountEv(ptr noundef nonnull align 8 dereferenceable(32) %2) #29
  %flags_.i.i.i = getelementptr inbounds i8, ptr %2, i64 304
  %3 = load i32, ptr %flags_.i.i.i, align 8
  %4 = and i32 %3, 3
  %or.cond.not.i.i = icmp eq i32 %4, 0
  br i1 %or.cond.not.i.i, label %if.end11.i.i, label %_ZN4node17BaseObjectPtrImplINS_5http212Http2SessionELb0EE5resetEPS2_.exit.i.i

_ZN4node17BaseObjectPtrImplINS_5http212Http2SessionELb0EE5resetEPS2_.exit.i.i: ; preds = %if.end.i.i
  tail call void @_ZN4node10BaseObject17decrease_refcountEv(ptr noundef nonnull align 8 dereferenceable(32) %2) #29
  br label %_ZN4node5http210Http2ScopeC2EPNS0_11Http2StreamE.exit

if.end11.i.i:                                     ; preds = %if.end.i.i
  %and.sink.i.i.i = or disjoint i32 %3, 1
  store i32 %and.sink.i.i.i, ptr %flags_.i.i.i, align 8
  br label %_ZN4node5http210Http2ScopeC2EPNS0_11Http2StreamE.exit

_ZN4node5http210Http2ScopeC2EPNS0_11Http2StreamE.exit: ; preds = %if.end, %_ZN4node17BaseObjectPtrImplINS_5http212Http2SessionELb0EE5resetEPS2_.exit.i.i, %if.end11.i.i
  %h2scope.sroa.0.0.ph = phi ptr [ null, %_ZN4node17BaseObjectPtrImplINS_5http212Http2SessionELb0EE5resetEPS2_.exit.i.i ], [ %2, %if.end11.i.i ], [ null, %if.end ]
  %.pr = load ptr, ptr %session_.i.i, align 8, !nonnull !13, !noundef !13
  %self.i.i.i = getelementptr inbounds i8, ptr %.pr, i64 16
  %5 = load ptr, ptr %self.i.i.i, align 8
  %session_.i = getelementptr inbounds i8, ptr %5, i64 168
  %6 = load ptr, ptr %session_.i, align 8
  %id_ = getelementptr inbounds i8, ptr %this, i64 192
  %7 = load i32, ptr %id_, align 8
  %code_ = getelementptr inbounds i8, ptr %this, i64 196
  %8 = load i32, ptr %code_, align 4
  %call4 = tail call i32 @nghttp2_submit_rst_stream(ptr noundef %6, i8 noundef zeroext 0, i32 noundef %7, i32 noundef %8) #29
  %cmp.not = icmp eq i32 %call4, 0
  br i1 %cmp.not, label %do.end11, label %do.body8

do.body8:                                         ; preds = %_ZN4node5http210Http2ScopeC2EPNS0_11Http2StreamE.exit
  tail call void @_ZN4node6AssertERKNS_13AssertionInfoE(ptr noundef nonnull align 8 dereferenceable(24) @_ZZN4node5http211Http2Stream14FlushRstStreamEvE4args) #29
  tail call void @abort() #30
  unreachable

do.end11:                                         ; preds = %_ZN4node5http210Http2ScopeC2EPNS0_11Http2StreamE.exit
  %cmp.i.not.i = icmp eq ptr %h2scope.sroa.0.0.ph, null
  br i1 %cmp.i.not.i, label %return, label %if.end.i

if.end.i:                                         ; preds = %do.end11
  %flags_.i.i = getelementptr inbounds i8, ptr %h2scope.sroa.0.0.ph, i64 304
  %9 = load i32, ptr %flags_.i.i, align 8
  %and.i.i = and i32 %9, -2
  store i32 %and.i.i, ptr %flags_.i.i, align 8
  %and.i2.i = and i32 %9, 2
  %tobool.i.not.i = icmp eq i32 %and.i2.i, 0
  br i1 %tobool.i.not.i, label %cleanup.i, label %if.then.i.i

cleanup.i:                                        ; preds = %if.end.i
  tail call void @_ZN4node5http212Http2Session18MaybeScheduleWriteEv(ptr noundef nonnull align 8 dereferenceable(640) %h2scope.sroa.0.0.ph)
  br label %if.then.i.i

if.then.i.i:                                      ; preds = %cleanup.i, %if.end.i
  tail call void @_ZN4node10BaseObject17decrease_refcountEv(ptr noundef nonnull align 8 dereferenceable(32) %h2scope.sroa.0.0.ph) #29
  br label %return

return:                                           ; preds = %if.then.i.i, %do.end11, %entry
  ret void
}